(lp0
(VThe magic of old lamps globes and crystals in Jamal s Corner The New Indian Express
p1
Vconversation
p2
tp3
a(Von fun this is this is a fun city not as cool as chennai
p4
Vconversation
p5
tp6
a.