(lp0
((dp1
Vand
p2
I00
sVold
p3
I00
sVis
p4
I01
sVas
p5
I01
sVIndian
p6
I00
sVin
p7
I00
sVglobes
p8
I00
sVcrystals
p9
I00
sVThe
p10
I00
sVcity
p11
I01
sVExpress
p12
I00
sVNew
p13
I00
sVchennai
p14
I01
sVlamps
p15
I00
sVnot
p16
I01
sVJamal
p17
I00
sVcool
p18
I01
sVa
p19
I01
sVon
p20
I01
sVmagic
p21
I00
sVthis
p22
I01
sVof
p23
I00
sVs
p24
I00
sVfun
p25
I01
sVCorner
p26
I00
sVconversation
p27
tp28
a((dp29
g2
I01
sg3
I01
sg4
I00
sg5
I00
sg6
I01
sg7
I01
sg8
I01
sg9
I01
sg10
I01
sg11
I00
sg12
I01
sg13
I01
sg14
I00
sg15
I01
sg16
I00
sg17
I01
sg18
I00
sg19
I00
sg20
I00
sg21
I01
sg22
I00
sg23
I01
sg24
I01
sg25
I00
sg26
I01
sVconversation
p30
tp31
a.