ccopy_reg
_reconstructor
p0
(cnltk.classify.naivebayes
NaiveBayesClassifier
p1
c__builtin__
object
p2
Ntp3
Rp4
(dp5
S'_labels'
p6
(lp7
Vconversation
p8
asS'_feature_probdist'
p9
(dp10
(g8
Von
p11
tp12
g0
(cnltk.probability
ELEProbDist
p13
g2
Ntp14
Rp15
(dp16
S'_gamma'
p17
F0.5
sS'_N'
p18
I2
sS'_freqdist'
p19
cnltk.probability
FreqDist
p20
((dp21
I00
I1
sI01
I1
stp22
Rp23
sS'_bins'
p24
I2
sS'_divisor'
p25
F3.0
sbs(g8
VThe
p26
tp27
g0
(g13
g2
Ntp28
Rp29
(dp30
g17
F0.5
sg18
I2
sg19
g20
((dp31
I00
I1
sI01
I1
stp32
Rp33
sg24
I2
sg25
F3.0
sbs(g8
Vglobes
p34
tp35
g0
(g13
g2
Ntp36
Rp37
(dp38
g17
F0.5
sg18
I2
sg19
g20
((dp39
I00
I1
sI01
I1
stp40
Rp41
sg24
I2
sg25
F3.0
sbs(g8
Vin
p42
tp43
g0
(g13
g2
Ntp44
Rp45
(dp46
g17
F0.5
sg18
I2
sg19
g20
((dp47
I00
I1
sI01
I1
stp48
Rp49
sg24
I2
sg25
F3.0
sbs(g8
VJamal
p50
tp51
g0
(g13
g2
Ntp52
Rp53
(dp54
g17
F0.5
sg18
I2
sg19
g20
((dp55
I00
I1
sI01
I1
stp56
Rp57
sg24
I2
sg25
F3.0
sbs(g8
Vmagic
p58
tp59
g0
(g13
g2
Ntp60
Rp61
(dp62
g17
F0.5
sg18
I2
sg19
g20
((dp63
I00
I1
sI01
I1
stp64
Rp65
sg24
I2
sg25
F3.0
sbs(g8
Vs
p66
tp67
g0
(g13
g2
Ntp68
Rp69
(dp70
g17
F0.5
sg18
I2
sg19
g20
((dp71
I00
I1
sI01
I1
stp72
Rp73
sg24
I2
sg25
F3.0
sbs(g8
VIndian
p74
tp75
g0
(g13
g2
Ntp76
Rp77
(dp78
g17
F0.5
sg18
I2
sg19
g20
((dp79
I00
I1
sI01
I1
stp80
Rp81
sg24
I2
sg25
F3.0
sbs(g8
Vof
p82
tp83
g0
(g13
g2
Ntp84
Rp85
(dp86
g17
F0.5
sg18
I2
sg19
g20
((dp87
I00
I1
sI01
I1
stp88
Rp89
sg24
I2
sg25
F3.0
sbs(g8
Vis
p90
tp91
g0
(g13
g2
Ntp92
Rp93
(dp94
g17
F0.5
sg18
I2
sg19
g20
((dp95
I00
I1
sI01
I1
stp96
Rp97
sg24
I2
sg25
F3.0
sbs(g8
Va
p98
tp99
g0
(g13
g2
Ntp100
Rp101
(dp102
g17
F0.5
sg18
I2
sg19
g20
((dp103
I00
I1
sI01
I1
stp104
Rp105
sg24
I2
sg25
F3.0
sbs(g8
VExpress
p106
tp107
g0
(g13
g2
Ntp108
Rp109
(dp110
g17
F0.5
sg18
I2
sg19
g20
((dp111
I00
I1
sI01
I1
stp112
Rp113
sg24
I2
sg25
F3.0
sbs(g8
Vlamps
p114
tp115
g0
(g13
g2
Ntp116
Rp117
(dp118
g17
F0.5
sg18
I2
sg19
g20
((dp119
I00
I1
sI01
I1
stp120
Rp121
sg24
I2
sg25
F3.0
sbs(g8
Vchennai
p122
tp123
g0
(g13
g2
Ntp124
Rp125
(dp126
g17
F0.5
sg18
I2
sg19
g20
((dp127
I00
I1
sI01
I1
stp128
Rp129
sg24
I2
sg25
F3.0
sbs(g8
Vold
p130
tp131
g0
(g13
g2
Ntp132
Rp133
(dp134
g17
F0.5
sg18
I2
sg19
g20
((dp135
I00
I1
sI01
I1
stp136
Rp137
sg24
I2
sg25
F3.0
sbs(g8
Vcrystals
p138
tp139
g0
(g13
g2
Ntp140
Rp141
(dp142
g17
F0.5
sg18
I2
sg19
g20
((dp143
I00
I1
sI01
I1
stp144
Rp145
sg24
I2
sg25
F3.0
sbs(g8
Vas
p146
tp147
g0
(g13
g2
Ntp148
Rp149
(dp150
g17
F0.5
sg18
I2
sg19
g20
((dp151
I00
I1
sI01
I1
stp152
Rp153
sg24
I2
sg25
F3.0
sbs(g8
Vthis
p154
tp155
g0
(g13
g2
Ntp156
Rp157
(dp158
g17
F0.5
sg18
I2
sg19
g20
((dp159
I00
I1
sI01
I1
stp160
Rp161
sg24
I2
sg25
F3.0
sbs(g8
Vand
p162
tp163
g0
(g13
g2
Ntp164
Rp165
(dp166
g17
F0.5
sg18
I2
sg19
g20
((dp167
I00
I1
sI01
I1
stp168
Rp169
sg24
I2
sg25
F3.0
sbs(g8
Vcity
p170
tp171
g0
(g13
g2
Ntp172
Rp173
(dp174
g17
F0.5
sg18
I2
sg19
g20
((dp175
I00
I1
sI01
I1
stp176
Rp177
sg24
I2
sg25
F3.0
sbs(g8
Vnot
p178
tp179
g0
(g13
g2
Ntp180
Rp181
(dp182
g17
F0.5
sg18
I2
sg19
g20
((dp183
I00
I1
sI01
I1
stp184
Rp185
sg24
I2
sg25
F3.0
sbs(g8
VCorner
p186
tp187
g0
(g13
g2
Ntp188
Rp189
(dp190
g17
F0.5
sg18
I2
sg19
g20
((dp191
I00
I1
sI01
I1
stp192
Rp193
sg24
I2
sg25
F3.0
sbs(g8
Vcool
p194
tp195
g0
(g13
g2
Ntp196
Rp197
(dp198
g17
F0.5
sg18
I2
sg19
g20
((dp199
I00
I1
sI01
I1
stp200
Rp201
sg24
I2
sg25
F3.0
sbs(g8
Vfun
p202
tp203
g0
(g13
g2
Ntp204
Rp205
(dp206
g17
F0.5
sg18
I2
sg19
g20
((dp207
I00
I1
sI01
I1
stp208
Rp209
sg24
I2
sg25
F3.0
sbs(g8
VNew
p210
tp211
g0
(g13
g2
Ntp212
Rp213
(dp214
g17
F0.5
sg18
I2
sg19
g20
((dp215
I00
I1
sI01
I1
stp216
Rp217
sg24
I2
sg25
F3.0
sbssS'_label_probdist'
p218
g0
(g13
g2
Ntp219
Rp220
(dp221
g17
F0.5
sg18
I2
sg19
g20
((dp222
g8
I2
stp223
Rp224
sg24
I1
sg25
F2.5
sbsb.