(lp0
Vand
p1
aVold
p2
aVis
p3
aVas
p4
aVIndian
p5
aVin
p6
aVglobes
p7
aVNew
p8
aVJamal
p9
aVcity
p10
aVExpress
p11
aVchennai
p12
aVlamps
p13
aVnot
p14
aVThe
p15
aVcool
p16
aVa
p17
aVon
p18
aVmagic
p19
aVthis
p20
aVof
p21
aVcrystals
p22
aVs
p23
aVfun
p24
aVCorner
p25
a.